; Function Attrs: mustprogress uwtable
define noundef zeroext i1 @_ZNK5Ipopt10DiagMatrix19HasValidNumbersImplEv(ptr nocapture noundef nonnull readonly align 8 dereferenceable(88) %0) unnamed_addr #0 align 2 {
  %2 = getelementptr inbounds i8, ptr %0, i64 80
  %3 = load ptr, ptr %2, align 8
  %4 = getelementptr inbounds i8, ptr %3, i64 200
  %5 = load i32, ptr %4, align 8
  %6 = getelementptr inbounds i8, ptr %3, i64 48
  %7 = load i32, ptr %6, align 8
  %.not.i = icmp eq i32 %5, %7
  br i1 %.not.i, label %._crit_edge.i, label %8

._crit_edge.i:                                    ; preds = %1
  %.phi.trans.insert.i = getelementptr inbounds i8, ptr %3, i64 204
  %.pre.i = load i8, ptr %.phi.trans.insert.i, align 4
  br label %_ZNK5Ipopt6Vector15HasValidNumbersEv.exit

8:                                                ; preds = %1
  %9 = load ptr, ptr %3, align 8
  %10 = getelementptr inbounds i8, ptr %9, i64 216
  %11 = load ptr, ptr %10, align 8
  %12 = tail call noundef zeroext i1 %11(ptr noundef nonnull align 8 dereferenceable(205) %3)
  %13 = getelementptr inbounds i8, ptr %3, i64 204
  %14 = zext i1 %12 to i8
  store i8 %14, ptr %13, align 4
  %15 = load i32, ptr %6, align 8
  store i32 %15, ptr %4, align 8
  br label %_ZNK5Ipopt6Vector15HasValidNumbersEv.exit

_ZNK5Ipopt6Vector15HasValidNumbersEv.exit:        ; preds = %._crit_edge.i, %8
  %16 = phi i8 [ %.pre.i, %._crit_edge.i ], [ %14, %8 ]
  %17 = and i8 %16, 1
  %18 = icmp ne i8 %17, 0
  ret i1 %18
}